Certificate:
    Data:
        Version: 3 (0x2)
        Serial Number: 1 (0x1)
        Signature Algorithm: sha256WithRSAEncryption
        Issuer: C=CN, ST=HK, L=HK, O=CUHK, CN=Lyu, Mingzhi/emailAddress=1155092157@link.cuhk.edu.hk
        Validity
            Not Before: Mar 13 02:09:36 2020 GMT
            Not After : Mar 13 02:09:36 2021 GMT
        Subject: CN=Lyu, Mingzhi, ST=HK, C=CN/emailAddress=1155092157@link.cuhk.edu.hk, O=CUHK
        Subject Public Key Info:
            Public Key Algorithm: rsaEncryption
                RSA Public-Key: (1024 bit)
                Modulus:
                    00:ad:78:1d:03:34:0b:81:91:67:ac:4f:c9:6e:89:
                    08:20:46:ae:73:53:36:7a:82:7a:6c:da:dc:6e:8f:
                    c7:44:eb:9a:91:00:db:c6:9e:27:62:8c:0c:45:b1:
                    04:04:44:74:70:ba:a5:88:d0:aa:a7:9f:67:00:2b:
                    d3:3f:d2:02:53:de:34:0f:18:fc:c8:48:b3:15:13:
                    cf:16:55:75:2e:8c:08:64:65:37:3d:51:03:1e:14:
                    39:5b:cf:e8:ae:a0:bf:a7:c0:e5:c0:a7:08:4c:d5:
                    be:9c:2d:df:f1:b4:32:4d:55:79:a6:48:29:2c:cc:
                    16:10:f1:cf:08:38:e7:b8:3b
                Exponent: 65537 (0x10001)
        X509v3 extensions:
            X509v3 Basic Constraints: 
                CA:FALSE
    Signature Algorithm: sha256WithRSAEncryption
         9b:6b:90:d6:8d:1d:4d:c8:60:56:09:e4:55:01:28:b3:09:5c:
         9a:24:28:c5:da:61:cd:2a:bc:22:c5:30:f4:03:f3:3f:25:21:
         a1:2f:b3:ac:de:95:83:40:e6:11:24:09:20:28:f2:99:9f:96:
         88:8f:bf:5f:38:c1:44:90:6b:64:59:23:ad:18:96:f8:0b:ac:
         da:96:18:e7:11:56:5c:c4:3f:06:b0:34:39:3b:13:54:84:4f:
         23:59:78:9b:53:3a:30:44:be:c5:72:4a:c6:cd:e8:e3:4a:c7:
         d2:16:f7:c7:66:70:9c:7b:d2:3b:6b:df:e0:fb:0e:98:37:ca:
         b3:48
-----BEGIN CERTIFICATE-----
MIICaDCCAdGgAwIBAgIBATANBgkqhkiG9w0BAQsFADB5MQswCQYDVQQGEwJDTjEL
MAkGA1UECAwCSEsxCzAJBgNVBAcMAkhLMQ0wCwYDVQQKDARDVUhLMRUwEwYDVQQD
DAxMeXUsIE1pbmd6aGkxKjAoBgkqhkiG9w0BCQEWGzExNTUwOTIxNTdAbGluay5j
dWhrLmVkdS5oazAeFw0yMDAzMTMwMjA5MzZaFw0yMTAzMTMwMjA5MzZaMGwxFTAT
BgNVBAMMDEx5dSwgTWluZ3poaTELMAkGA1UECAwCSEsxCzAJBgNVBAYTAkNOMSow
KAYJKoZIhvcNAQkBFhsxMTU1MDkyMTU3QGxpbmsuY3Voay5lZHUuaGsxDTALBgNV
BAoMBENVSEswgZ8wDQYJKoZIhvcNAQEBBQADgY0AMIGJAoGBAK14HQM0C4GRZ6xP
yW6JCCBGrnNTNnqCemza3G6Px0TrmpEA28aeJ2KMDEWxBAREdHC6pYjQqqefZwAr
0z/SAlPeNA8Y/MhIsxUTzxZVdS6MCGRlNz1RAx4UOVvP6K6gv6fA5cCnCEzVvpwt
3/G0Mk1VeaZIKSzMFhDxzwg457g7AgMBAAGjDTALMAkGA1UdEwQCMAAwDQYJKoZI
hvcNAQELBQADgYEAm2uQ1o0dTchgVgnkVQEoswlcmiQoxdphzSq8IsUw9APzPyUh
oS+zrN6Vg0DmESQJICjymZ+WiI+/XzjBRJBrZFkjrRiW+Aus2pYY5xFWXMQ/BrA0
OTsTVIRPI1l4m1M6MES+xXJKxs3o40rH0hb3x2ZwnHvSO2vf4PsOmDfKs0g=
-----END CERTIFICATE-----
